target datalayout = "e-m:e-p270:32:32-p271:32:32-p272:64:64-i64:64-i128:128-f80:128-n8:16:32:64-S128"
target triple = "x86_64-pc-linux-gnu"

; Function Attrs: nounwind uwtable
define hidden i32 @hwloc_free_mmap(ptr noundef %0, ptr noundef %1, i64 noundef %2) #0 {
  %4 = alloca i32, align 4
  %5 = alloca ptr, align 8
  %6 = alloca ptr, align 8
  %7 = alloca i64, align 8
  store ptr %0, ptr %5, align 8, !tbaa !3
  store ptr %1, ptr %6, align 8, !tbaa !48
  store i64 %2, ptr %7, align 8, !tbaa !40
  %8 = load ptr, ptr %6, align 8, !tbaa !48
  %9 = icmp ne ptr %8, null
  br i1 %9, label %11, label %10

10:                                               ; preds = %3
  store i32 0, ptr %4, align 4
  br label %15

11:                                               ; preds = %3
  %12 = load ptr, ptr %6, align 8, !tbaa !48
  %13 = load i64, ptr %7, align 8, !tbaa !40
  %14 = call i32 @munmap(ptr noundef %12, i64 noundef %13) #9
  store i32 %14, ptr %4, align 4
  br label %15

15:                                               ; preds = %11, %10
  %16 = load i32, ptr %4, align 4
  ret i32 %16
}