; Function Attrs: nounwind uwtable
define hidden i32 @hwloc_free_mmap(ptr noundef readnone captures(none) %0, ptr noundef %1, i64 noundef %2) local_unnamed_addr #0 {
  %.not = icmp eq ptr %1, null
  br i1 %.not, label %6, label %4

4:                                                ; preds = %3
  %5 = tail call i32 @munmap(ptr noundef nonnull %1, i64 noundef %2) #14
  br label %6

6:                                                ; preds = %3, %4
  %.0 = phi i32 [ %5, %4 ], [ 0, %3 ]
  ret i32 %.0
}